target datalayout = "e-m:e-p270:32:32-p271:32:32-p272:64:64-i64:64-i128:128-f80:128-n8:16:32:64-S128"
target triple = "x86_64-pc-linux-gnu"

@.str.19 = private unnamed_addr constant [3 x i8] c"wb\00", align 1
@.str.43 = private unnamed_addr constant [22 x i8] c"const_mul//macc%03d.v\00", align 1

; Function Attrs: nounwind uwtable
define void @Macc_ConstMultGenTest() #0 {
  %1 = alloca i32, align 4
  %2 = alloca i32, align 4
  %3 = alloca i32, align 4
  %4 = alloca ptr, align 8
  %5 = alloca i32, align 4
  %6 = alloca [100 x i8], align 16
  %7 = alloca ptr, align 8
  call void @llvm.lifetime.start.p0(i64 4, ptr %1) #9
  store i32 8, ptr %1, align 4, !tbaa !8
  call void @llvm.lifetime.start.p0(i64 4, ptr %2) #9
  store i32 16, ptr %2, align 4, !tbaa !8
  call void @llvm.lifetime.start.p0(i64 4, ptr %3) #9
  %8 = load i32, ptr %1, align 4, !tbaa !8
  %9 = sub nsw i32 %8, 1
  %10 = shl i32 1, %9
  store i32 %10, ptr %3, align 4, !tbaa !8
  call void @llvm.lifetime.start.p0(i64 8, ptr %4) #9
  %11 = load i32, ptr %1, align 4, !tbaa !8
  %12 = call ptr @Macc_ConstMultGenerate(i32 noundef %11)
  store ptr %12, ptr %4, align 8, !tbaa !14
  call void @llvm.lifetime.start.p0(i64 4, ptr %5) #9
  call void @llvm.lifetime.start.p0(i64 100, ptr %6) #9
  call void @llvm.lifetime.start.p0(i64 8, ptr %7) #9
  %13 = load i32, ptr %3, align 4, !tbaa !8
  %14 = sub nsw i32 0, %13
  store i32 %14, ptr %5, align 4, !tbaa !8
  br label %15

15:                                               ; preds = %33, %0
  %16 = load i32, ptr %5, align 4, !tbaa !8
  %17 = load i32, ptr %3, align 4, !tbaa !8
  %18 = icmp slt i32 %16, %17
  br i1 %18, label %19, label %36

19:                                               ; preds = %15
  %20 = getelementptr inbounds [100 x i8], ptr %6, i64 0, i64 0
  %21 = load i32, ptr %5, align 4, !tbaa !8
  %22 = and i32 255, %21
  %23 = call i32 (ptr, ptr, ...) @sprintf(ptr noundef %20, ptr noundef @.str.43, i32 noundef %22) #9
  %24 = getelementptr inbounds [100 x i8], ptr %6, i64 0, i64 0
  %25 = call noalias ptr @fopen(ptr noundef %24, ptr noundef @.str.19)
  store ptr %25, ptr %7, align 8, !tbaa !3
  %26 = load ptr, ptr %7, align 8, !tbaa !3
  %27 = load ptr, ptr %4, align 8, !tbaa !14
  %28 = load i32, ptr %5, align 4, !tbaa !8
  %29 = load i32, ptr %1, align 4, !tbaa !8
  %30 = load i32, ptr %2, align 4, !tbaa !8
  call void @Macc_ConstMultGenMacc2(ptr noundef %26, ptr noundef %27, i32 noundef %28, i32 noundef %29, i32 noundef %30)
  %31 = load ptr, ptr %7, align 8, !tbaa !3
  %32 = call i32 @fclose(ptr noundef %31)
  br label %33

33:                                               ; preds = %19
  %34 = load i32, ptr %5, align 4, !tbaa !8
  %35 = add nsw i32 %34, 1
  store i32 %35, ptr %5, align 4, !tbaa !8
  br label %15, !llvm.loop !38

36:                                               ; preds = %15
  %37 = load ptr, ptr %4, align 8, !tbaa !14
  %38 = icmp ne ptr %37, null
  br i1 %38, label %39, label %41

39:                                               ; preds = %36
  %40 = load ptr, ptr %4, align 8, !tbaa !14
  call void @free(ptr noundef %40) #9
  store ptr null, ptr %4, align 8, !tbaa !14
  br label %42

41:                                               ; preds = %36
  br label %42

42:                                               ; preds = %41, %39
  call void @llvm.lifetime.end.p0(i64 8, ptr %7) #9
  call void @llvm.lifetime.end.p0(i64 100, ptr %6) #9
  call void @llvm.lifetime.end.p0(i64 4, ptr %5) #9
  call void @llvm.lifetime.end.p0(i64 8, ptr %4) #9
  call void @llvm.lifetime.end.p0(i64 4, ptr %3) #9
  call void @llvm.lifetime.end.p0(i64 4, ptr %2) #9
  call void @llvm.lifetime.end.p0(i64 4, ptr %1) #9
  ret void
}