; Function Attrs: nounwind uwtable
define void @Macc_ConstMultGenTest() local_unnamed_addr #0 {
  %1 = alloca [100 x i8], align 16
  %2 = tail call ptr @Macc_ConstMultGenerate(i32 noundef 8)
  call void @llvm.lifetime.start.p0(i64 100, ptr nonnull %1) #12
  br label %3

3:                                                ; preds = %0, %3
  %.015 = phi i32 [ -128, %0 ], [ %8, %3 ]
  %4 = and i32 %.015, 255
  %5 = call i32 (ptr, ptr, ...) @sprintf(ptr noundef nonnull dereferenceable(1) %1, ptr noundef nonnull dereferenceable(1) @.str.43, i32 noundef %4) #12
  %6 = call noalias ptr @fopen(ptr noundef nonnull %1, ptr noundef nonnull @.str.19)
  tail call void @Macc_ConstMultGenMacc2(ptr noundef %6, ptr noundef %2, i32 noundef %.015, i32 noundef 8, i32 noundef 16)
  %7 = tail call i32 @fclose(ptr noundef %6)
  %8 = add nsw i32 %.015, 1
  %exitcond.not = icmp eq i32 %8, 128
  br i1 %exitcond.not, label %9, label %3, !llvm.loop !34

9:                                                ; preds = %3
  %.not = icmp eq ptr %2, null
  br i1 %.not, label %11, label %10

10:                                               ; preds = %9
  tail call void @free(ptr noundef nonnull %2) #12
  br label %11

11:                                               ; preds = %9, %10
  call void @llvm.lifetime.end.p0(i64 100, ptr nonnull %1) #12
  ret void
}